Certificate:
    Data:
        Version: 3 (0x2)
        Serial Number: 2 (0x2)
        Signature Algorithm: sha256WithRSAEncryption
        Issuer: O=Test Org, CN=Test Org rauc CA Development
        Validity
            Not Before: Jan  1 00:00:00 1970 GMT
            Not After : Dec 31 23:59:59 9999 GMT
        Subject: O=Test Org, CN=Test Org Development-1
        Subject Public Key Info:
            Public Key Algorithm: rsaEncryption
                Public-Key: (2048 bit)
                Modulus:
                    00:cb:6e:4a:b2:ae:44:4d:0c:cf:af:01:8a:27:ec:
                    ff:b6:52:de:16:52:b6:2c:04:29:76:3c:21:e6:69:
                    c1:7d:23:51:e5:5d:c0:76:3d:db:35:5c:06:c9:04:
                    89:01:77:cf:85:4a:58:81:cc:05:bb:27:34:ff:c8:
                    54:19:02:c2:b5:b9:0b:06:80:89:90:d6:e4:04:de:
                    19:0e:3b:52:90:a0:03:3d:bb:13:be:7f:46:0d:97:
                    f1:ba:4a:e7:1f:8f:b9:a1:43:ec:4a:08:5e:34:72:
                    b4:e1:c1:81:32:05:5f:bd:72:16:ef:03:9d:c1:c6:
                    d3:1d:f6:c0:cf:ac:1e:bc:58:6a:16:d0:e6:25:0d:
                    5d:05:64:ab:c2:1d:c1:70:04:ea:f3:d7:66:92:66:
                    dd:00:62:78:92:51:76:c7:13:e0:a9:dd:0c:98:3f:
                    21:ed:e7:71:e3:0f:40:67:23:c9:cc:a7:42:4a:71:
                    e4:f4:7b:b5:54:40:be:f7:c8:93:17:52:33:95:19:
                    f5:de:9a:ea:8d:62:d3:a4:c1:9a:b7:f3:63:c5:a1:
                    38:0c:b9:f5:26:96:36:88:41:5b:28:6d:ba:f1:87:
                    a3:72:1e:1d:3d:ae:8b:82:97:ca:eb:4b:72:61:e0:
                    bc:26:45:66:5d:6a:24:b3:5f:da:09:41:55:81:9e:
                    eb:3d
                Exponent: 65537 (0x10001)
        X509v3 extensions:
            X509v3 Subject Key Identifier: 
                EF:A4:A9:4C:33:20:81:FB:BA:21:F2:B2:17:C4:69:3F:0F:78:27:C7
            X509v3 Authority Key Identifier: 
                keyid:04:29:B6:CA:FF:B8:76:39:28:02:77:BD:17:AB:15:E2:A6:92:CB:22
                DirName:/O=Test Org/CN=Test Org rauc CA Development
                serial:01
            X509v3 Basic Constraints: 
                CA:FALSE
    Signature Algorithm: sha256WithRSAEncryption
    Signature Value:
        21:09:c7:60:86:b9:c7:db:0c:e5:a6:af:5b:97:b0:e4:2d:cf:
        5a:37:3b:c3:f0:80:d2:31:96:f2:8a:e2:0f:c1:77:7c:2c:0a:
        15:d2:d2:4a:7c:d6:e5:ad:6c:23:09:a8:e7:0a:56:85:ac:2f:
        d3:89:38:73:af:53:39:a3:74:2f:17:b8:9e:f8:8b:55:8c:46:
        f2:76:bd:9c:05:7a:fb:af:11:49:76:77:02:c4:c5:35:85:d0:
        56:a3:e0:af:1d:b7:dd:c1:27:2e:89:83:0a:ec:08:9a:67:0c:
        cd:9b:0c:c9:a8:aa:90:76:8c:5d:ac:21:3d:3d:8d:b9:d3:cc:
        c5:be:b9:cb:fe:4c:ea:ae:c1:52:2d:ad:09:fb:4b:d2:36:9f:
        58:ea:0a:58:df:bb:22:2a:1d:59:d1:a0:28:a9:fa:aa:9a:c4:
        d8:af:9a:08:55:cd:4f:aa:11:24:51:33:52:a6:69:25:82:13:
        2e:f8:78:9b:04:8b:dd:69:6c:2e:d7:3e:5e:46:e9:1d:cb:ff:
        58:af:ce:fb:05:f2:56:a5:44:36:3c:48:9e:1d:fc:bd:ac:eb:
        e7:ff:c0:15:a4:3c:5b:c6:26:28:3a:ca:29:fa:3e:4d:e7:e1:
        4b:cb:4f:8c:b3:93:24:45:f1:35:e1:f1:51:36:bd:58:76:e6:
        d5:57:b7:dd
-----BEGIN CERTIFICATE-----
MIIDfTCCAmWgAwIBAgIBAjANBgkqhkiG9w0BAQsFADA6MREwDwYDVQQKDAhUZXN0
IE9yZzElMCMGA1UEAwwcVGVzdCBPcmcgcmF1YyBDQSBEZXZlbG9wbWVudDAgFw03
MDAxMDEwMDAwMDBaGA85OTk5MTIzMTIzNTk1OVowNDERMA8GA1UECgwIVGVzdCBP
cmcxHzAdBgNVBAMMFlRlc3QgT3JnIERldmVsb3BtZW50LTEwggEiMA0GCSqGSIb3
DQEBAQUAA4IBDwAwggEKAoIBAQDLbkqyrkRNDM+vAYon7P+2Ut4WUrYsBCl2PCHm
acF9I1HlXcB2Pds1XAbJBIkBd8+FSliBzAW7JzT/yFQZAsK1uQsGgImQ1uQE3hkO
O1KQoAM9uxO+f0YNl/G6Sucfj7mhQ+xKCF40crThwYEyBV+9chbvA53BxtMd9sDP
rB68WGoW0OYlDV0FZKvCHcFwBOrz12aSZt0AYniSUXbHE+Cp3QyYPyHt53HjD0Bn
I8nMp0JKceT0e7VUQL73yJMXUjOVGfXemuqNYtOkwZq382PFoTgMufUmljaIQVso
bbrxh6NyHh09rouCl8rrS3Jh4LwmRWZdaiSzX9oJQVWBnus9AgMBAAGjgZEwgY4w
HQYDVR0OBBYEFO+kqUwzIIH7uiHyshfEaT8PeCfHMGIGA1UdIwRbMFmAFAQptsr/
uHY5KAJ3vRerFeKmkssioT6kPDA6MREwDwYDVQQKDAhUZXN0IE9yZzElMCMGA1UE
AwwcVGVzdCBPcmcgcmF1YyBDQSBEZXZlbG9wbWVudIIBATAJBgNVHRMEAjAAMA0G
CSqGSIb3DQEBCwUAA4IBAQAhCcdghrnH2wzlpq9bl7DkLc9aNzvD8IDSMZbyiuIP
wXd8LAoV0tJKfNblrWwjCajnClaFrC/TiThzr1M5o3QvF7ie+ItVjEbydr2cBXr7
rxFJdncCxMU1hdBWo+CvHbfdwScuiYMK7AiaZwzNmwzJqKqQdoxdrCE9PY2508zF
vrnL/kzqrsFSLa0J+0vSNp9Y6gpY37siKh1Z0aAoqfqqmsTYr5oIVc1PqhEkUTNS
pmklghMu+HibBIvdaWwu1z5eRukdy/9Yr877BfJWpUQ2PEieHfy9rOvn/8AVpDxb
xiYoOsop+j5N5+FLy0+Ms5MkRfE14fFRNr1YdubVV7fd
-----END CERTIFICATE-----
