Certificate:
    Data:
        Version: 3 (0x2)
        Serial Number: 1 (0x1)
        Signature Algorithm: sha256WithRSAEncryption
        Issuer: O=Test Org, CN=Test Org rauc CA Development
        Validity
            Not Before: Jan  1 00:00:00 1970 GMT
            Not After : Dec 31 23:59:59 9999 GMT
        Subject: O=Test Org, CN=Test Org rauc CA Development
        Subject Public Key Info:
            Public Key Algorithm: rsaEncryption
                Public-Key: (2048 bit)
                Modulus:
                    00:87:55:08:b1:e1:68:c8:4c:12:a6:31:65:8b:6b:
                    2f:7a:95:d4:90:8d:a4:d6:b3:3b:2b:4b:b0:8a:69:
                    eb:07:7e:fd:fd:b3:d6:d7:47:aa:0b:a2:91:e7:fe:
                    f6:a6:85:60:c0:04:1c:cd:9b:09:4f:fc:b0:b1:01:
                    8c:fd:46:4e:94:c8:d5:98:87:93:d5:9a:95:99:6e:
                    d4:af:2d:10:29:b3:24:e7:f5:5c:a5:b9:b1:2d:bb:
                    b8:7a:d6:86:d0:01:db:d0:6b:4d:1a:f5:da:d1:99:
                    c7:f1:4e:ca:1a:59:8a:0c:81:61:c8:1e:94:3a:13:
                    e0:7e:0b:ef:b0:00:25:f1:64:60:6c:94:e9:b7:8f:
                    39:fc:3d:e4:76:3b:c1:54:ea:ba:6c:32:5d:df:76:
                    d4:d9:8d:c7:65:9c:6d:66:5d:39:e1:b8:ae:20:39:
                    45:fd:33:4d:90:97:d3:6f:43:cc:e4:de:42:1c:4e:
                    ba:ba:82:8d:4a:c4:e4:61:f1:3c:2a:a9:09:21:98:
                    34:05:69:06:90:3d:46:1b:b0:89:5d:a5:e2:99:64:
                    97:ba:b5:e9:a5:85:5f:26:c1:6e:77:38:93:c9:7c:
                    8d:15:7e:da:cb:67:db:08:6a:5c:b3:dd:4f:11:de:
                    f3:8a:3e:21:0a:8f:79:e7:a9:68:61:d6:0a:67:5d:
                    55:9f
                Exponent: 65537 (0x10001)
        X509v3 extensions:
            X509v3 Subject Key Identifier: 
                04:29:B6:CA:FF:B8:76:39:28:02:77:BD:17:AB:15:E2:A6:92:CB:22
            X509v3 Authority Key Identifier: 
                keyid:04:29:B6:CA:FF:B8:76:39:28:02:77:BD:17:AB:15:E2:A6:92:CB:22
                DirName:/O=Test Org/CN=Test Org rauc CA Development
                serial:01
            X509v3 Basic Constraints: 
                CA:TRUE
    Signature Algorithm: sha256WithRSAEncryption
    Signature Value:
        80:d2:f4:5d:3f:50:6e:86:df:9c:2e:20:c5:bf:50:b7:83:5d:
        49:78:fc:05:2c:da:28:1a:40:43:8d:2e:8a:71:58:1c:be:42:
        a5:2c:e7:1a:72:59:a5:7f:00:24:4d:e5:79:f3:f7:7b:04:07:
        36:b7:9d:6a:61:21:2d:a6:4d:0d:da:c1:6e:bd:ad:3e:2c:af:
        8f:89:69:2e:d2:aa:cd:71:2a:f7:80:dd:4e:38:22:3c:dd:c6:
        92:ea:00:09:2e:56:06:ce:99:d3:31:d5:9a:47:f9:5f:40:42:
        3a:38:9f:18:03:8b:e2:de:17:1a:af:1d:3e:21:e4:d8:72:08:
        e1:ba:8b:96:ad:42:25:2e:9a:92:b6:e7:02:96:f2:41:61:72:
        da:82:b5:7d:07:db:18:1c:d4:f5:68:44:0f:4b:15:aa:aa:d5:
        6d:55:a9:06:aa:ee:31:7a:c5:1d:0d:77:bb:89:2b:01:27:4f:
        58:f1:3c:19:ed:35:d6:5b:53:95:32:4e:4f:38:6e:d0:0e:1c:
        97:ff:4c:60:a0:42:bb:03:90:3a:db:63:fe:03:c8:b4:86:a3:
        5f:15:6a:10:21:10:3f:a8:da:a1:37:66:42:1e:33:58:51:38:
        ce:d6:a0:dc:39:07:0a:fc:e1:ee:ca:fc:78:89:59:3d:7f:d9:
        bf:3c:3e:b5
-----BEGIN CERTIFICATE-----
MIIDhjCCAm6gAwIBAgIBATANBgkqhkiG9w0BAQsFADA6MREwDwYDVQQKDAhUZXN0
IE9yZzElMCMGA1UEAwwcVGVzdCBPcmcgcmF1YyBDQSBEZXZlbG9wbWVudDAgFw03
MDAxMDEwMDAwMDBaGA85OTk5MTIzMTIzNTk1OVowOjERMA8GA1UECgwIVGVzdCBP
cmcxJTAjBgNVBAMMHFRlc3QgT3JnIHJhdWMgQ0EgRGV2ZWxvcG1lbnQwggEiMA0G
CSqGSIb3DQEBAQUAA4IBDwAwggEKAoIBAQCHVQix4WjITBKmMWWLay96ldSQjaTW
szsrS7CKaesHfv39s9bXR6oLopHn/vamhWDABBzNmwlP/LCxAYz9Rk6UyNWYh5PV
mpWZbtSvLRApsyTn9VylubEtu7h61obQAdvQa00a9drRmcfxTsoaWYoMgWHIHpQ6
E+B+C++wACXxZGBslOm3jzn8PeR2O8FU6rpsMl3fdtTZjcdlnG1mXTnhuK4gOUX9
M02Ql9NvQ8zk3kIcTrq6go1KxORh8TwqqQkhmDQFaQaQPUYbsIldpeKZZJe6teml
hV8mwW53OJPJfI0VftrLZ9sIalyz3U8R3vOKPiEKj3nnqWhh1gpnXVWfAgMBAAGj
gZQwgZEwHQYDVR0OBBYEFAQptsr/uHY5KAJ3vRerFeKmkssiMGIGA1UdIwRbMFmA
FAQptsr/uHY5KAJ3vRerFeKmkssioT6kPDA6MREwDwYDVQQKDAhUZXN0IE9yZzEl
MCMGA1UEAwwcVGVzdCBPcmcgcmF1YyBDQSBEZXZlbG9wbWVudIIBATAMBgNVHRME
BTADAQH/MA0GCSqGSIb3DQEBCwUAA4IBAQCA0vRdP1Buht+cLiDFv1C3g11JePwF
LNooGkBDjS6KcVgcvkKlLOcaclmlfwAkTeV58/d7BAc2t51qYSEtpk0N2sFuva0+
LK+PiWku0qrNcSr3gN1OOCI83caS6gAJLlYGzpnTMdWaR/lfQEI6OJ8YA4vi3hca
rx0+IeTYcgjhuouWrUIlLpqStucClvJBYXLagrV9B9sYHNT1aEQPSxWqqtVtVakG
qu4xesUdDXe7iSsBJ09Y8TwZ7TXWW1OVMk5POG7QDhyX/0xgoEK7A5A622P+A8i0
hqNfFWoQIRA/qNqhN2ZCHjNYUTjO1qDcOQcK/OHuyvx4iVk9f9m/PD61
-----END CERTIFICATE-----
